; ModuleID = 'source-C-CXX/57/739.c'
source_filename = "source-C-CXX/57/739.c"
target datalayout = "e-m:e-p270:32:32-p271:32:32-p272:64:64-i64:64-f80:128-n8:16:32:64-S128"
target triple = "x86_64-pc-linux-gnu"

%struct._IO_FILE = type { i32, i8*, i8*, i8*, i8*, i8*, i8*, i8*, i8*, i8*, i8*, i8*, %struct._IO_marker*, %struct._IO_FILE*, i32, i32, i64, i16, i8, [1 x i8], i8*, i64, %struct._IO_codecvt*, %struct._IO_wide_data*, %struct._IO_FILE*, i8*, i64, i32, [20 x i8] }
%struct._IO_marker = type opaque
%struct._IO_codecvt = type opaque
%struct._IO_wide_data = type opaque

@.str = private unnamed_addr constant [3 x i8] c"%d\00", align 1
@.str.1 = private unnamed_addr constant [4 x i8] c"%d\0A\00", align 1
@stdin = external local_unnamed_addr global %struct._IO_FILE*, align 8

; Function Attrs: nounwind sspstrong uwtable
define dso_local i32 @main() local_unnamed_addr #0 {
  %1 = alloca i32, align 4
  %2 = alloca [81 x i8], align 16
  %3 = bitcast i32* %1 to i8*
  call void @llvm.lifetime.start.p0i8(i64 4, i8* nonnull %3) #6
  %4 = call i32 (i8*, ...) @__isoc99_scanf(i8* getelementptr inbounds ([3 x i8], [3 x i8]* @.str, i64 0, i64 0), i32* nonnull %1)
  %5 = load %struct._IO_FILE*, %struct._IO_FILE** @stdin, align 8, !tbaa !5
  %6 = call i32 @getc(%struct._IO_FILE* %5) #6
  %7 = getelementptr inbounds [81 x i8], [81 x i8]* %2, i64 0, i64 0
  call void @llvm.lifetime.start.p0i8(i64 81, i8* nonnull %7) #6
  %8 = load i32, i32* %1, align 4, !tbaa !9
  %9 = icmp slt i32 %8, 1
  br i1 %9, label %46, label %10

10:                                               ; preds = %0, %40
  %11 = phi i32 [ %43, %40 ], [ 1, %0 ]
  %12 = call i32 (i8*, ...) bitcast (i32 (...)* @gets to i32 (i8*, ...)*)(i8* nonnull %7) #6
  %13 = call i64 @strlen(i8* noundef nonnull %7) #7
  %14 = trunc i64 %13 to i32
  %15 = load i8, i8* %7, align 16, !tbaa !11
  %16 = icmp eq i8 %15, 95
  br i1 %16, label %22, label %17

17:                                               ; preds = %10
  %18 = sext i8 %15 to i32
  %19 = call i32 @isalpha(i32 %18) #7
  %20 = icmp ne i32 %19, 0
  %21 = zext i1 %20 to i32
  br label %22

22:                                               ; preds = %17, %10
  %23 = phi i32 [ 1, %10 ], [ %21, %17 ]
  %24 = icmp sgt i32 %14, 1
  br i1 %24, label %25, label %40

25:                                               ; preds = %22
  %26 = and i64 %13, 4294967295
  br label %27

27:                                               ; preds = %25, %27
  %28 = phi i64 [ 1, %25 ], [ %38, %27 ]
  %29 = phi i32 [ %23, %25 ], [ %37, %27 ]
  %30 = getelementptr inbounds [81 x i8], [81 x i8]* %2, i64 0, i64 %28
  %31 = load i8, i8* %30, align 1, !tbaa !11
  %32 = sext i8 %31 to i32
  %33 = call i32 @isalnum(i32 %32) #7
  %34 = icmp ne i32 %33, 0
  %35 = icmp eq i8 %31, 95
  %36 = select i1 %34, i1 true, i1 %35
  %37 = select i1 %36, i32 %29, i32 0
  %38 = add nuw nsw i64 %28, 1
  %39 = icmp eq i64 %38, %26
  br i1 %39, label %40, label %27, !llvm.loop !12

40:                                               ; preds = %27, %22
  %41 = phi i32 [ %23, %22 ], [ %37, %27 ]
  %42 = call i32 (i8*, ...) @printf(i8* nonnull dereferenceable(1) getelementptr inbounds ([4 x i8], [4 x i8]* @.str.1, i64 0, i64 0), i32 %41)
  %43 = add nuw nsw i32 %11, 1
  %44 = load i32, i32* %1, align 4, !tbaa !9
  %45 = icmp slt i32 %11, %44
  br i1 %45, label %10, label %46, !llvm.loop !14

46:                                               ; preds = %40, %0
  call void @llvm.lifetime.end.p0i8(i64 81, i8* nonnull %7) #6
  call void @llvm.lifetime.end.p0i8(i64 4, i8* nonnull %3) #6
  ret i32 0
}

; Function Attrs: argmemonly mustprogress nofree nosync nounwind willreturn
declare void @llvm.lifetime.start.p0i8(i64 immarg, i8* nocapture) #1

; Function Attrs: nofree nounwind
declare noundef i32 @__isoc99_scanf(i8* nocapture noundef readonly, ...) local_unnamed_addr #2

declare i32 @gets(...) local_unnamed_addr #3

; Function Attrs: argmemonly mustprogress nofree nounwind readonly willreturn
declare i64 @strlen(i8* nocapture) local_unnamed_addr #4

; Function Attrs: mustprogress nofree nounwind readonly willreturn
declare i32 @isalpha(i32) local_unnamed_addr #5

; Function Attrs: mustprogress nofree nounwind readonly willreturn
declare i32 @isalnum(i32) local_unnamed_addr #5

; Function Attrs: nofree nounwind
declare noundef i32 @printf(i8* nocapture noundef readonly, ...) local_unnamed_addr #2

; Function Attrs: argmemonly mustprogress nofree nosync nounwind willreturn
declare void @llvm.lifetime.end.p0i8(i64 immarg, i8* nocapture) #1

; Function Attrs: nofree nounwind
declare noundef i32 @getc(%struct._IO_FILE* nocapture noundef) local_unnamed_addr #2


!llvm.module.flags = !{!0, !1, !2, !3}
!llvm.ident = !{!4}

!0 = !{i32 1, !"wchar_size", i32 4}
!1 = !{i32 7, !"PIC Level", i32 2}
!2 = !{i32 7, !"PIE Level", i32 2}
!3 = !{i32 7, !"uwtable", i32 1}
!4 = !{!"clang version 13.0.0"}
!5 = !{!6, !6, i64 0}
!6 = !{!"any pointer", !7, i64 0}
!7 = !{!"omnipotent char", !8, i64 0}
!8 = !{!"Simple C/C++ TBAA"}
!9 = !{!10, !10, i64 0}
!10 = !{!"int", !7, i64 0}
!11 = !{!7, !7, i64 0}
!12 = distinct !{!12, !13}
!13 = !{!"llvm.loop.mustprogress"}
!14 = distinct !{!14, !13}
